; Function Attrs: mustprogress uwtable
define void @_ZN3nix14SourceAccessor8dumpPathERKNS_9CanonPathERNS_4SinkERSt8functionIFbRKNSt7__cxx1112basic_stringIcSt11char_traitsIcESaIcEEEEE(ptr noundef nonnull align 8 dereferenceable(80) %0, ptr noundef nonnull align 8 dereferenceable(32) %1, ptr noundef nonnull align 8 dereferenceable(8) %2, ptr noundef nonnull align 8 dereferenceable(32) %3) unnamed_addr #4 align 2 personality ptr @__gxx_personality_v0 {
  %5 = alloca %class.anon.12, align 8
  %6 = alloca %"class.std::function.13", align 8
  store ptr %2, ptr %5, align 8
  %7 = getelementptr inbounds i8, ptr %5, i64 8
  store ptr %0, ptr %7, align 8
  call void @llvm.memset.p0.i64(ptr noundef nonnull align 8 dereferenceable(32) %6, i8 0, i64 32, i1 false)
  %8 = invoke noalias noundef nonnull dereferenceable(40) ptr @_Znwm(i64 noundef 40) #32
          to label %9 unwind label %24

9:                                                ; preds = %4
  store ptr %0, ptr %8, align 16
  %.sroa.2.0..sroa_idx = getelementptr inbounds i8, ptr %8, i64 8
  store ptr %2, ptr %.sroa.2.0..sroa_idx, align 8
  %.sroa.3.0..sroa_idx = getelementptr inbounds i8, ptr %8, i64 16
  store ptr %5, ptr %.sroa.3.0..sroa_idx, align 16
  %.sroa.4.0..sroa_idx = getelementptr inbounds i8, ptr %8, i64 24
  store ptr %3, ptr %.sroa.4.0..sroa_idx, align 8
  %.sroa.5.0..sroa_idx = getelementptr inbounds i8, ptr %8, i64 32
  store ptr %6, ptr %.sroa.5.0..sroa_idx, align 16
  store ptr %8, ptr %6, align 8
  %.sroa.4.0..sroa_idx12 = getelementptr inbounds i8, ptr %6, i64 8
  store i64 0, ptr %.sroa.4.0..sroa_idx12, align 8
  %10 = getelementptr inbounds i8, ptr %6, i64 16
  store ptr @"_ZNSt17_Function_handlerIFvRKN3nix9CanonPathEEZNS0_14SourceAccessor8dumpPathES3_RNS0_4SinkERSt8functionIFbRKNSt7__cxx1112basic_stringIcSt11char_traitsIcESaIcEEEEEE3$_1E10_M_managerERSt9_Any_dataRKSM_St18_Manager_operation", ptr %10, align 8
  %11 = getelementptr inbounds i8, ptr %6, i64 24
  store ptr @"_ZNSt17_Function_handlerIFvRKN3nix9CanonPathEEZNS0_14SourceAccessor8dumpPathES3_RNS0_4SinkERSt8functionIFbRKNSt7__cxx1112basic_stringIcSt11char_traitsIcESaIcEEEEEE3$_1E9_M_invokeERKSt9_Any_dataS3_", ptr %11, align 8
  %12 = invoke noundef nonnull align 8 dereferenceable(8) ptr @_ZN3nixlsERNS_4SinkESt17basic_string_viewIcSt11char_traitsIcEE(ptr noundef nonnull align 8 dereferenceable(8) %2, i64 13, ptr nonnull @.str.15)
          to label %13 unwind label %24

13:                                               ; preds = %9
  %14 = load ptr, ptr %10, align 8
  %.not.i.i = icmp eq ptr %14, null
  br i1 %.not.i.i, label %15, label %16

15:                                               ; preds = %13
  invoke void @_ZSt25__throw_bad_function_callv() #33
          to label %.noexc7 unwind label %24

.noexc7:                                          ; preds = %15
  unreachable

16:                                               ; preds = %13
  %17 = load ptr, ptr %11, align 8
  invoke void %17(ptr noundef nonnull align 8 dereferenceable(16) %6, ptr noundef nonnull align 8 dereferenceable(32) %1)
          to label %_ZNKSt8functionIFvRKN3nix9CanonPathEEEclES3_.exit unwind label %24

_ZNKSt8functionIFvRKN3nix9CanonPathEEEclES3_.exit: ; preds = %16
  %18 = load ptr, ptr %10, align 8
  %.not.i.i9 = icmp eq ptr %18, null
  br i1 %.not.i.i9, label %_ZNSt8functionIFvRKN3nix9CanonPathEEED2Ev.exit, label %19

19:                                               ; preds = %_ZNKSt8functionIFvRKN3nix9CanonPathEEEclES3_.exit
  %20 = invoke noundef zeroext i1 %18(ptr noundef nonnull align 8 dereferenceable(16) %6, ptr noundef nonnull align 8 dereferenceable(16) %6, i32 noundef 3)
          to label %_ZNSt8functionIFvRKN3nix9CanonPathEEED2Ev.exit unwind label %21

21:                                               ; preds = %19
  %22 = landingpad { ptr, i32 }
          catch ptr null
  %23 = extractvalue { ptr, i32 } %22, 0
  call void @__clang_call_terminate(ptr %23) #30
  unreachable

_ZNSt8functionIFvRKN3nix9CanonPathEEED2Ev.exit:   ; preds = %_ZNKSt8functionIFvRKN3nix9CanonPathEEEclES3_.exit, %19
  ret void

24:                                               ; preds = %16, %15, %4, %9
  %25 = landingpad { ptr, i32 }
          cleanup
  %26 = getelementptr inbounds i8, ptr %6, i64 16
  %27 = load ptr, ptr %26, align 8
  %.not.i.i10 = icmp eq ptr %27, null
  br i1 %.not.i.i10, label %_ZNSt8functionIFvRKN3nix9CanonPathEEED2Ev.exit11, label %28

28:                                               ; preds = %24
  %29 = invoke noundef zeroext i1 %27(ptr noundef nonnull align 8 dereferenceable(16) %6, ptr noundef nonnull align 8 dereferenceable(16) %6, i32 noundef 3)
          to label %_ZNSt8functionIFvRKN3nix9CanonPathEEED2Ev.exit11 unwind label %30

30:                                               ; preds = %28
  %31 = landingpad { ptr, i32 }
          catch ptr null
  %32 = extractvalue { ptr, i32 } %31, 0
  call void @__clang_call_terminate(ptr %32) #30
  unreachable

_ZNSt8functionIFvRKN3nix9CanonPathEEED2Ev.exit11: ; preds = %24, %28
  resume { ptr, i32 } %25
}